target datalayout = "e-m:e-p270:32:32-p271:32:32-p272:64:64-i64:64-i128:128-f80:128-n8:16:32:64-S128"
target triple = "x86_64-pc-linux-gnu"

%struct.PJconsts = type { ptr, ptr, ptr, ptr, ptr, ptr, ptr, ptr, ptr, ptr, ptr, ptr, i32, ptr, ptr, ptr, ptr, ptr, ptr, ptr, ptr, double, double, double, double, double, double, double, double, double, double, double, double, double, double, double, double, double, double, double, double, double, double, i32, i32, i32, i32, i32, i32, i32, i32, i32, i32, i32, ptr, ptr, ptr, ptr, ptr, ptr, double, double, double, double, double, double, double, double, double, double, double, i32, [7 x double], i32, ptr, ptr, double, double, i32, [4 x i8], %"class.std::shared_ptr", i8, double, i8, %"class.std::__cxx11::basic_string", %"class.std::__cxx11::basic_string", %"class.std::__cxx11::basic_string", i8, %"class.std::vector", i32, %"class.std::vector.3", i32, i8, i8, i8, ptr }
%"class.std::shared_ptr" = type { %"class.std::__shared_ptr" }
%"class.std::__shared_ptr" = type { ptr, %"class.std::__shared_count" }
%"class.std::__shared_count" = type { ptr }
%"class.std::__cxx11::basic_string" = type { %"struct.std::__cxx11::basic_string<char>::_Alloc_hider", i64, %union.anon }
%"struct.std::__cxx11::basic_string<char>::_Alloc_hider" = type { ptr }
%union.anon = type { i64, [8 x i8] }
%"class.std::vector" = type { %"struct.std::_Vector_base" }
%"struct.std::_Vector_base" = type { %"struct.std::_Vector_base<osgeo::proj::operation::GridDescription, std::allocator<osgeo::proj::operation::GridDescription>>::_Vector_impl" }
%"struct.std::_Vector_base<osgeo::proj::operation::GridDescription, std::allocator<osgeo::proj::operation::GridDescription>>::_Vector_impl" = type { %"struct.std::_Vector_base<osgeo::proj::operation::GridDescription, std::allocator<osgeo::proj::operation::GridDescription>>::_Vector_impl_data" }
%"struct.std::_Vector_base<osgeo::proj::operation::GridDescription, std::allocator<osgeo::proj::operation::GridDescription>>::_Vector_impl_data" = type { ptr, ptr, ptr }
%"class.std::vector.3" = type { %"struct.std::_Vector_base.4" }
%"struct.std::_Vector_base.4" = type { %"struct.std::_Vector_base<PJCoordOperation, std::allocator<PJCoordOperation>>::_Vector_impl" }
%"struct.std::_Vector_base<PJCoordOperation, std::allocator<PJCoordOperation>>::_Vector_impl" = type { %"struct.std::_Vector_base<PJCoordOperation, std::allocator<PJCoordOperation>>::_Vector_impl_data" }
%"struct.std::_Vector_base<PJCoordOperation, std::allocator<PJCoordOperation>>::_Vector_impl_data" = type { ptr, ptr, ptr }
%struct.PJ_XYZ = type { double, double, double }
%struct.PJ_LPZ = type { double, double, double }

; Function Attrs: mustprogress nounwind uwtable
define internal noundef double @_ZL26normal_radius_of_curvatureddd(double noundef %0, double noundef %1, double noundef %2) #1 {
  %4 = alloca double, align 8
  %5 = alloca double, align 8
  %6 = alloca double, align 8
  %7 = alloca double, align 8
  store double %0, ptr %5, align 8, !tbaa !48
  store double %1, ptr %6, align 8, !tbaa !48
  store double %2, ptr %7, align 8, !tbaa !48
  %8 = load double, ptr %6, align 8, !tbaa !48
  %9 = fcmp oeq double %8, 0.000000e+00
  br i1 %9, label %10, label %12

10:                                               ; preds = %3
  %11 = load double, ptr %5, align 8, !tbaa !48
  store double %11, ptr %4, align 8
  br label %22

12:                                               ; preds = %3
  %13 = load double, ptr %5, align 8, !tbaa !48
  %14 = load double, ptr %6, align 8, !tbaa !48
  %15 = load double, ptr %7, align 8, !tbaa !48
  %16 = fmul double %14, %15
  %17 = load double, ptr %7, align 8, !tbaa !48
  %18 = fneg double %16
  %19 = call double @llvm.fmuladd.f64(double %18, double %17, double 1.000000e+00)
  %20 = call double @sqrt(double noundef %19) #7, !tbaa !47
  %21 = fdiv double %13, %20
  store double %21, ptr %4, align 8
  br label %22

22:                                               ; preds = %12, %10
  %23 = load double, ptr %4, align 8
  ret double %23
}

; Function Attrs: mustprogress uwtable
define internal void @_ZL9cartesian6PJ_LPZP8PJconsts(ptr dead_on_unwind noalias writable sret(%struct.PJ_XYZ) align 8 %0, ptr noundef byval(%struct.PJ_LPZ) align 8 %1, ptr noundef %2) #0 {
  %4 = alloca ptr, align 8
  %5 = alloca double, align 8
  %6 = alloca double, align 8
  %7 = alloca double, align 8
  store ptr %2, ptr %4, align 8, !tbaa !3
  call void @llvm.lifetime.start.p0(i64 8, ptr %5) #7
  %8 = getelementptr inbounds nuw %struct.PJ_LPZ, ptr %1, i32 0, i32 1
  %9 = load double, ptr %8, align 8, !tbaa !45
  %10 = call double @cos(double noundef %9) #7, !tbaa !47
  store double %10, ptr %5, align 8, !tbaa !48
  call void @llvm.lifetime.start.p0(i64 8, ptr %6) #7
  %11 = getelementptr inbounds nuw %struct.PJ_LPZ, ptr %1, i32 0, i32 1
  %12 = load double, ptr %11, align 8, !tbaa !45
  %13 = call double @sin(double noundef %12) #7, !tbaa !47
  store double %13, ptr %6, align 8, !tbaa !48
  call void @llvm.lifetime.start.p0(i64 8, ptr %7) #7
  %14 = load ptr, ptr %4, align 8, !tbaa !3
  %15 = getelementptr inbounds nuw %struct.PJconsts, ptr %14, i32 0, i32 21
  %16 = load double, ptr %15, align 8, !tbaa !49
  %17 = load ptr, ptr %4, align 8, !tbaa !3
  %18 = getelementptr inbounds nuw %struct.PJconsts, ptr %17, i32 0, i32 27
  %19 = load double, ptr %18, align 8, !tbaa !50
  %20 = load double, ptr %6, align 8, !tbaa !48
  %21 = call noundef double @_ZL26normal_radius_of_curvatureddd(double noundef %16, double noundef %19, double noundef %20)
  store double %21, ptr %7, align 8, !tbaa !48
  %22 = load double, ptr %7, align 8, !tbaa !48
  %23 = getelementptr inbounds nuw %struct.PJ_LPZ, ptr %1, i32 0, i32 2
  %24 = load double, ptr %23, align 8, !tbaa !51
  %25 = fadd double %22, %24
  %26 = load double, ptr %5, align 8, !tbaa !48
  %27 = fmul double %25, %26
  %28 = getelementptr inbounds nuw %struct.PJ_LPZ, ptr %1, i32 0, i32 0
  %29 = load double, ptr %28, align 8, !tbaa !52
  %30 = call double @cos(double noundef %29) #7, !tbaa !47
  %31 = fmul double %27, %30
  %32 = getelementptr inbounds nuw %struct.PJ_XYZ, ptr %0, i32 0, i32 0
  store double %31, ptr %32, align 8, !tbaa !53
  %33 = load double, ptr %7, align 8, !tbaa !48
  %34 = getelementptr inbounds nuw %struct.PJ_LPZ, ptr %1, i32 0, i32 2
  %35 = load double, ptr %34, align 8, !tbaa !51
  %36 = fadd double %33, %35
  %37 = load double, ptr %5, align 8, !tbaa !48
  %38 = fmul double %36, %37
  %39 = getelementptr inbounds nuw %struct.PJ_LPZ, ptr %1, i32 0, i32 0
  %40 = load double, ptr %39, align 8, !tbaa !52
  %41 = call double @sin(double noundef %40) #7, !tbaa !47
  %42 = fmul double %38, %41
  %43 = getelementptr inbounds nuw %struct.PJ_XYZ, ptr %0, i32 0, i32 1
  store double %42, ptr %43, align 8, !tbaa !55
  %44 = load double, ptr %7, align 8, !tbaa !48
  %45 = load ptr, ptr %4, align 8, !tbaa !3
  %46 = getelementptr inbounds nuw %struct.PJconsts, ptr %45, i32 0, i32 27
  %47 = load double, ptr %46, align 8, !tbaa !50
  %48 = fsub double 1.000000e+00, %47
  %49 = getelementptr inbounds nuw %struct.PJ_LPZ, ptr %1, i32 0, i32 2
  %50 = load double, ptr %49, align 8, !tbaa !51
  %51 = call double @llvm.fmuladd.f64(double %44, double %48, double %50)
  %52 = load double, ptr %6, align 8, !tbaa !48
  %53 = fmul double %51, %52
  %54 = getelementptr inbounds nuw %struct.PJ_XYZ, ptr %0, i32 0, i32 2
  store double %53, ptr %54, align 8, !tbaa !56
  call void @llvm.lifetime.end.p0(i64 8, ptr %7) #7
  call void @llvm.lifetime.end.p0(i64 8, ptr %6) #7
  call void @llvm.lifetime.end.p0(i64 8, ptr %5) #7
  ret void
}