; Function Attrs: mustprogress nofree nounwind willreturn memory(write, argmem: readwrite) uwtable
define internal void @_ZL9cartesian6PJ_LPZP8PJconsts(ptr dead_on_unwind noalias writable writeonly sret(%struct.PJ_XYZ) align 8 captures(none) initializes((0, 24)) %0, ptr noundef readonly byval(%struct.PJ_LPZ) align 8 captures(none) %1, ptr noundef readonly captures(none) %2) #3 {
  %4 = getelementptr inbounds nuw i8, ptr %1, i64 8
  %5 = load double, ptr %4, align 8, !tbaa !44
  %6 = tail call double @cos(double noundef %5) #8, !tbaa !46
  %7 = tail call double @sin(double noundef %5) #8, !tbaa !46
  %8 = getelementptr inbounds nuw i8, ptr %2, i64 168
  %9 = load double, ptr %8, align 8, !tbaa !47
  %10 = getelementptr inbounds nuw i8, ptr %2, i64 216
  %11 = load double, ptr %10, align 8, !tbaa !48
  %12 = fcmp oeq double %11, 0.000000e+00
  br i1 %12, label %_ZL26normal_radius_of_curvatureddd.exit, label %13

13:                                               ; preds = %3
  %14 = fneg double %7
  %15 = fmul double %11, %14
  %16 = tail call double @llvm.fmuladd.f64(double %15, double %7, double 1.000000e+00)
  %17 = tail call double @sqrt(double noundef %16) #8, !tbaa !46
  %18 = fdiv double %9, %17
  br label %_ZL26normal_radius_of_curvatureddd.exit

_ZL26normal_radius_of_curvatureddd.exit:          ; preds = %3, %13
  %.0.i = phi double [ %18, %13 ], [ %9, %3 ]
  %19 = getelementptr inbounds nuw i8, ptr %1, i64 16
  %20 = load double, ptr %19, align 8, !tbaa !49
  %21 = fadd double %.0.i, %20
  %22 = fmul double %6, %21
  %23 = load double, ptr %1, align 8, !tbaa !50
  %24 = tail call double @cos(double noundef %23) #8, !tbaa !46
  %25 = fmul double %22, %24
  store double %25, ptr %0, align 8, !tbaa !51
  %26 = tail call double @sin(double noundef %23) #8, !tbaa !46
  %27 = fmul double %22, %26
  %28 = getelementptr inbounds nuw i8, ptr %0, i64 8
  store double %27, ptr %28, align 8, !tbaa !53
  %29 = fsub double 1.000000e+00, %11
  %30 = tail call double @llvm.fmuladd.f64(double %.0.i, double %29, double %20)
  %31 = fmul double %7, %30
  %32 = getelementptr inbounds nuw i8, ptr %0, i64 16
  store double %31, ptr %32, align 8, !tbaa !54
  ret void
}